; Function Attrs: mustprogress uwtable
define internal fastcc noundef double @_ZL34pj_imoll_o_compute_zone_x_boundaryP8PJconstsdd(ptr noundef readonly captures(none) %0, double noundef %1, double noundef %2) unnamed_addr #0 {
  %4 = fadd double %1, -1.000000e-10
  %5 = fadd double %1, 1.000000e-10
  %6 = getelementptr inbounds nuw i8, ptr %0, i64 88
  %7 = load ptr, ptr %6, align 8, !tbaa !40
  %8 = fcmp ult double %2, 0.000000e+00
  br i1 %8, label %13, label %9

9:                                                ; preds = %3
  %10 = fcmp ugt double %4, 0xBFF921FB54442D18
  br i1 %10, label %11, label %_ZL17imoll_o_s_forward5PJ_LPP8PJconsts.exit

11:                                               ; preds = %9
  %12 = fcmp ult double %4, 0x3FF0C152382D7365
  %..i = select i1 %12, i64 1, i64 2
  br label %_ZL17imoll_o_s_forward5PJ_LPP8PJconsts.exit

13:                                               ; preds = %3
  %14 = fcmp ugt double %4, 0xBFF0C152382D7365
  br i1 %14, label %15, label %_ZL17imoll_o_s_forward5PJ_LPP8PJconsts.exit

15:                                               ; preds = %13
  %16 = fcmp ult double %4, 0x3FF921FB54442D18
  %.19.i = select i1 %16, i64 4, i64 5
  br label %_ZL17imoll_o_s_forward5PJ_LPP8PJconsts.exit

_ZL17imoll_o_s_forward5PJ_LPP8PJconsts.exit:      ; preds = %9, %11, %13, %15
  %.0.i = phi i64 [ 0, %9 ], [ %..i, %11 ], [ 3, %13 ], [ %.19.i, %15 ]
  %17 = getelementptr inbounds nuw [6 x ptr], ptr %7, i64 0, i64 %.0.i
  %18 = load ptr, ptr %17, align 8, !tbaa !41
  %19 = getelementptr inbounds nuw i8, ptr %18, i64 440
  %20 = load double, ptr %19, align 8, !tbaa !45
  %21 = fsub double %4, %20
  %22 = getelementptr inbounds nuw i8, ptr %18, i64 104
  %23 = load ptr, ptr %22, align 8, !tbaa !55
  %24 = tail call { double, double } %23(double %21, double %2, ptr noundef %18)
  %25 = load ptr, ptr %17, align 8, !tbaa !41
  %26 = getelementptr inbounds nuw i8, ptr %25, i64 456
  %27 = load double, ptr %26, align 8, !tbaa !43
  %28 = load ptr, ptr %6, align 8, !tbaa !40
  br i1 %8, label %33, label %29

29:                                               ; preds = %_ZL17imoll_o_s_forward5PJ_LPP8PJconsts.exit
  %30 = fcmp ugt double %5, 0xBFF921FB54442D18
  br i1 %30, label %31, label %_ZL17imoll_o_s_forward5PJ_LPP8PJconsts.exit24

31:                                               ; preds = %29
  %32 = fcmp ult double %5, 0x3FF0C152382D7365
  %..i22 = select i1 %32, i64 1, i64 2
  br label %_ZL17imoll_o_s_forward5PJ_LPP8PJconsts.exit24

33:                                               ; preds = %_ZL17imoll_o_s_forward5PJ_LPP8PJconsts.exit
  %34 = fcmp ugt double %5, 0xBFF0C152382D7365
  br i1 %34, label %35, label %_ZL17imoll_o_s_forward5PJ_LPP8PJconsts.exit24

35:                                               ; preds = %33
  %36 = fcmp ult double %5, 0x3FF921FB54442D18
  %.19.i23 = select i1 %36, i64 4, i64 5
  br label %_ZL17imoll_o_s_forward5PJ_LPP8PJconsts.exit24

_ZL17imoll_o_s_forward5PJ_LPP8PJconsts.exit24:    ; preds = %29, %31, %33, %35
  %.0.i19 = phi i64 [ 0, %29 ], [ %..i22, %31 ], [ 3, %33 ], [ %.19.i23, %35 ]
  %37 = extractvalue { double, double } %24, 0
  %38 = fadd double %37, %27
  %39 = getelementptr inbounds nuw [6 x ptr], ptr %28, i64 0, i64 %.0.i19
  %40 = load ptr, ptr %39, align 8, !tbaa !41
  %41 = getelementptr inbounds nuw i8, ptr %40, i64 440
  %42 = load double, ptr %41, align 8, !tbaa !45
  %43 = fsub double %5, %42
  %44 = getelementptr inbounds nuw i8, ptr %40, i64 104
  %45 = load ptr, ptr %44, align 8, !tbaa !55
  %46 = tail call { double, double } %45(double %43, double %2, ptr noundef %40)
  %47 = extractvalue { double, double } %46, 0
  %48 = load ptr, ptr %39, align 8, !tbaa !41
  %49 = getelementptr inbounds nuw i8, ptr %48, i64 456
  %50 = load double, ptr %49, align 8, !tbaa !43
  %51 = fadd double %47, %50
  %52 = fadd double %38, %51
  %53 = fmul double %52, 5.000000e-01
  ret double %53
}